target datalayout = "e-m:e-p270:32:32-p271:32:32-p272:64:64-i64:64-i128:128-f80:128-n8:16:32:64-S128"
target triple = "x86_64-pc-linux-gnu"

@s_Truths6Neg = internal global [6 x i64] [i64 6148914691236517205, i64 3689348814741910323, i64 1085102592571150095, i64 71777214294589695, i64 281470681808895, i64 4294967295], align 16
@s_Truths6 = internal global [6 x i64] [i64 -6148914691236517206, i64 -3689348814741910324, i64 -1085102592571150096, i64 -71777214294589696, i64 -281470681808896, i64 -4294967296], align 16

; Function Attrs: inlinehint nounwind uwtable
define internal void @Vec_IntSelectSort(ptr noundef %0, i32 noundef %1) #3 {
  %3 = alloca ptr, align 8
  %4 = alloca i32, align 4
  %5 = alloca i32, align 4
  %6 = alloca i32, align 4
  %7 = alloca i32, align 4
  %8 = alloca i32, align 4
  store ptr %0, ptr %3, align 8, !tbaa !51
  store i32 %1, ptr %4, align 4, !tbaa !24
  call void @llvm.lifetime.start.p0(i64 4, ptr %5) #12
  call void @llvm.lifetime.start.p0(i64 4, ptr %6) #12
  call void @llvm.lifetime.start.p0(i64 4, ptr %7) #12
  call void @llvm.lifetime.start.p0(i64 4, ptr %8) #12
  store i32 0, ptr %6, align 4, !tbaa !24
  br label %9

9:                                                ; preds = %60, %2
  %10 = load i32, ptr %6, align 4, !tbaa !24
  %11 = load i32, ptr %4, align 4, !tbaa !24
  %12 = sub nsw i32 %11, 1
  %13 = icmp slt i32 %10, %12
  br i1 %13, label %14, label %63

14:                                               ; preds = %9
  %15 = load i32, ptr %6, align 4, !tbaa !24
  store i32 %15, ptr %8, align 4, !tbaa !24
  %16 = load i32, ptr %6, align 4, !tbaa !24
  %17 = add nsw i32 %16, 1
  store i32 %17, ptr %7, align 4, !tbaa !24
  br label %18

18:                                               ; preds = %37, %14
  %19 = load i32, ptr %7, align 4, !tbaa !24
  %20 = load i32, ptr %4, align 4, !tbaa !24
  %21 = icmp slt i32 %19, %20
  br i1 %21, label %22, label %40

22:                                               ; preds = %18
  %23 = load ptr, ptr %3, align 8, !tbaa !51
  %24 = load i32, ptr %7, align 4, !tbaa !24
  %25 = sext i32 %24 to i64
  %26 = getelementptr inbounds i32, ptr %23, i64 %25
  %27 = load i32, ptr %26, align 4, !tbaa !24
  %28 = load ptr, ptr %3, align 8, !tbaa !51
  %29 = load i32, ptr %8, align 4, !tbaa !24
  %30 = sext i32 %29 to i64
  %31 = getelementptr inbounds i32, ptr %28, i64 %30
  %32 = load i32, ptr %31, align 4, !tbaa !24
  %33 = icmp slt i32 %27, %32
  br i1 %33, label %34, label %36

34:                                               ; preds = %22
  %35 = load i32, ptr %7, align 4, !tbaa !24
  store i32 %35, ptr %8, align 4, !tbaa !24
  br label %36

36:                                               ; preds = %34, %22
  br label %37

37:                                               ; preds = %36
  %38 = load i32, ptr %7, align 4, !tbaa !24
  %39 = add nsw i32 %38, 1
  store i32 %39, ptr %7, align 4, !tbaa !24
  br label %18, !llvm.loop !112

40:                                               ; preds = %18
  %41 = load ptr, ptr %3, align 8, !tbaa !51
  %42 = load i32, ptr %6, align 4, !tbaa !24
  %43 = sext i32 %42 to i64
  %44 = getelementptr inbounds i32, ptr %41, i64 %43
  %45 = load i32, ptr %44, align 4, !tbaa !24
  store i32 %45, ptr %5, align 4, !tbaa !24
  %46 = load ptr, ptr %3, align 8, !tbaa !51
  %47 = load i32, ptr %8, align 4, !tbaa !24
  %48 = sext i32 %47 to i64
  %49 = getelementptr inbounds i32, ptr %46, i64 %48
  %50 = load i32, ptr %49, align 4, !tbaa !24
  %51 = load ptr, ptr %3, align 8, !tbaa !51
  %52 = load i32, ptr %6, align 4, !tbaa !24
  %53 = sext i32 %52 to i64
  %54 = getelementptr inbounds i32, ptr %51, i64 %53
  store i32 %50, ptr %54, align 4, !tbaa !24
  %55 = load i32, ptr %5, align 4, !tbaa !24
  %56 = load ptr, ptr %3, align 8, !tbaa !51
  %57 = load i32, ptr %8, align 4, !tbaa !24
  %58 = sext i32 %57 to i64
  %59 = getelementptr inbounds i32, ptr %56, i64 %58
  store i32 %55, ptr %59, align 4, !tbaa !24
  br label %60

60:                                               ; preds = %40
  %61 = load i32, ptr %6, align 4, !tbaa !24
  %62 = add nsw i32 %61, 1
  store i32 %62, ptr %6, align 4, !tbaa !24
  br label %9, !llvm.loop !113

63:                                               ; preds = %9
  call void @llvm.lifetime.end.p0(i64 4, ptr %8) #12
  call void @llvm.lifetime.end.p0(i64 4, ptr %7) #12
  call void @llvm.lifetime.end.p0(i64 4, ptr %6) #12
  call void @llvm.lifetime.end.p0(i64 4, ptr %5) #12
  ret void
}

; Function Attrs: inlinehint nounwind uwtable
define internal i64 @Abc_Tt6Cofactor1(i64 noundef %0, i32 noundef %1) #3 {
  %3 = alloca i64, align 8
  %4 = alloca i32, align 4
  store i64 %0, ptr %3, align 8, !tbaa !55
  store i32 %1, ptr %4, align 4, !tbaa !24
  %5 = load i64, ptr %3, align 8, !tbaa !55
  %6 = load i32, ptr %4, align 4, !tbaa !24
  %7 = sext i32 %6 to i64
  %8 = getelementptr inbounds [6 x i64], ptr @s_Truths6, i64 0, i64 %7
  %9 = load i64, ptr %8, align 8, !tbaa !55
  %10 = and i64 %5, %9
  %11 = load i64, ptr %3, align 8, !tbaa !55
  %12 = load i32, ptr %4, align 4, !tbaa !24
  %13 = sext i32 %12 to i64
  %14 = getelementptr inbounds [6 x i64], ptr @s_Truths6, i64 0, i64 %13
  %15 = load i64, ptr %14, align 8, !tbaa !55
  %16 = and i64 %11, %15
  %17 = load i32, ptr %4, align 4, !tbaa !24
  %18 = shl i32 1, %17
  %19 = zext i32 %18 to i64
  %20 = lshr i64 %16, %19
  %21 = or i64 %10, %20
  ret i64 %21
}

; Function Attrs: inlinehint nounwind uwtable
define internal i32 @Abc_TtCountOnes(i64 noundef %0) #3 {
  %2 = alloca i64, align 8
  store i64 %0, ptr %2, align 8, !tbaa !55
  %3 = load i64, ptr %2, align 8, !tbaa !55
  %4 = load i64, ptr %2, align 8, !tbaa !55
  %5 = lshr i64 %4, 1
  %6 = and i64 %5, 6148914691236517205
  %7 = sub i64 %3, %6
  store i64 %7, ptr %2, align 8, !tbaa !55
  %8 = load i64, ptr %2, align 8, !tbaa !55
  %9 = and i64 %8, 3689348814741910323
  %10 = load i64, ptr %2, align 8, !tbaa !55
  %11 = lshr i64 %10, 2
  %12 = and i64 %11, 3689348814741910323
  %13 = add i64 %9, %12
  store i64 %13, ptr %2, align 8, !tbaa !55
  %14 = load i64, ptr %2, align 8, !tbaa !55
  %15 = load i64, ptr %2, align 8, !tbaa !55
  %16 = lshr i64 %15, 4
  %17 = add i64 %14, %16
  %18 = and i64 %17, 1085102592571150095
  store i64 %18, ptr %2, align 8, !tbaa !55
  %19 = load i64, ptr %2, align 8, !tbaa !55
  %20 = load i64, ptr %2, align 8, !tbaa !55
  %21 = lshr i64 %20, 8
  %22 = add i64 %19, %21
  store i64 %22, ptr %2, align 8, !tbaa !55
  %23 = load i64, ptr %2, align 8, !tbaa !55
  %24 = load i64, ptr %2, align 8, !tbaa !55
  %25 = lshr i64 %24, 16
  %26 = add i64 %23, %25
  store i64 %26, ptr %2, align 8, !tbaa !55
  %27 = load i64, ptr %2, align 8, !tbaa !55
  %28 = load i64, ptr %2, align 8, !tbaa !55
  %29 = lshr i64 %28, 32
  %30 = add i64 %27, %29
  store i64 %30, ptr %2, align 8, !tbaa !55
  %31 = load i64, ptr %2, align 8, !tbaa !55
  %32 = and i64 %31, 255
  %33 = trunc i64 %32 to i32
  ret i32 %33
}

; Function Attrs: inlinehint nounwind uwtable
define internal i64 @Abc_Tt6Cofactor0(i64 noundef %0, i32 noundef %1) #3 {
  %3 = alloca i64, align 8
  %4 = alloca i32, align 4
  store i64 %0, ptr %3, align 8, !tbaa !55
  store i32 %1, ptr %4, align 4, !tbaa !24
  %5 = load i64, ptr %3, align 8, !tbaa !55
  %6 = load i32, ptr %4, align 4, !tbaa !24
  %7 = sext i32 %6 to i64
  %8 = getelementptr inbounds [6 x i64], ptr @s_Truths6Neg, i64 0, i64 %7
  %9 = load i64, ptr %8, align 8, !tbaa !55
  %10 = and i64 %5, %9
  %11 = load i64, ptr %3, align 8, !tbaa !55
  %12 = load i32, ptr %4, align 4, !tbaa !24
  %13 = sext i32 %12 to i64
  %14 = getelementptr inbounds [6 x i64], ptr @s_Truths6Neg, i64 0, i64 %13
  %15 = load i64, ptr %14, align 8, !tbaa !55
  %16 = and i64 %11, %15
  %17 = load i32, ptr %4, align 4, !tbaa !24
  %18 = shl i32 1, %17
  %19 = zext i32 %18 to i64
  %20 = shl i64 %16, %19
  %21 = or i64 %10, %20
  ret i64 %21
}

; Function Attrs: nounwind uwtable
define void @Ifd_ComputeSignature(i64 noundef %0, ptr noundef %1) #0 {
  %3 = alloca i64, align 8
  %4 = alloca ptr, align 8
  %5 = alloca i32, align 4
  %6 = alloca i32, align 4
  %7 = alloca i32, align 4
  %8 = alloca i32, align 4
  store i64 %0, ptr %3, align 8, !tbaa !55
  store ptr %1, ptr %4, align 8, !tbaa !51
  call void @llvm.lifetime.start.p0(i64 4, ptr %5) #12
  call void @llvm.lifetime.start.p0(i64 4, ptr %6) #12
  call void @llvm.lifetime.start.p0(i64 4, ptr %7) #12
  call void @llvm.lifetime.start.p0(i64 4, ptr %8) #12
  store i32 0, ptr %5, align 4, !tbaa !24
  br label %9

9:                                                ; preds = %60, %2
  %10 = load i32, ptr %5, align 4, !tbaa !24
  %11 = icmp slt i32 %10, 6
  br i1 %11, label %12, label %63

12:                                               ; preds = %9
  %13 = load i64, ptr %3, align 8, !tbaa !55
  %14 = load i32, ptr %5, align 4, !tbaa !24
  %15 = call i64 @Abc_Tt6Cofactor0(i64 noundef %13, i32 noundef %14)
  %16 = call i32 @Abc_TtCountOnes(i64 noundef %15)
  %17 = sdiv i32 %16, 2
  store i32 %17, ptr %7, align 4, !tbaa !24
  %18 = load i64, ptr %3, align 8, !tbaa !55
  %19 = load i32, ptr %5, align 4, !tbaa !24
  %20 = call i64 @Abc_Tt6Cofactor1(i64 noundef %18, i32 noundef %19)
  %21 = call i32 @Abc_TtCountOnes(i64 noundef %20)
  %22 = sdiv i32 %21, 2
  store i32 %22, ptr %6, align 4, !tbaa !24
  %23 = load i64, ptr %3, align 8, !tbaa !55
  %24 = load i32, ptr %5, align 4, !tbaa !24
  %25 = call i64 @Abc_Tt6Cofactor0(i64 noundef %23, i32 noundef %24)
  %26 = load i64, ptr %3, align 8, !tbaa !55
  %27 = load i32, ptr %5, align 4, !tbaa !24
  %28 = call i64 @Abc_Tt6Cofactor1(i64 noundef %26, i32 noundef %27)
  %29 = xor i64 %25, %28
  %30 = call i32 @Abc_TtCountOnes(i64 noundef %29)
  %31 = sdiv i32 %30, 2
  store i32 %31, ptr %8, align 4, !tbaa !24
  %32 = load i32, ptr %6, align 4, !tbaa !24
  %33 = load i32, ptr %7, align 4, !tbaa !24
  %34 = icmp sle i32 %32, %33
  br i1 %34, label %35, label %47

35:                                               ; preds = %12
  %36 = load i32, ptr %6, align 4, !tbaa !24
  %37 = shl i32 %36, 20
  %38 = load i32, ptr %7, align 4, !tbaa !24
  %39 = shl i32 %38, 10
  %40 = or i32 %37, %39
  %41 = load i32, ptr %8, align 4, !tbaa !24
  %42 = or i32 %40, %41
  %43 = load ptr, ptr %4, align 8, !tbaa !51
  %44 = load i32, ptr %5, align 4, !tbaa !24
  %45 = sext i32 %44 to i64
  %46 = getelementptr inbounds i32, ptr %43, i64 %45
  store i32 %42, ptr %46, align 4, !tbaa !24
  br label %59

47:                                               ; preds = %12
  %48 = load i32, ptr %7, align 4, !tbaa !24
  %49 = shl i32 %48, 20
  %50 = load i32, ptr %6, align 4, !tbaa !24
  %51 = shl i32 %50, 10
  %52 = or i32 %49, %51
  %53 = load i32, ptr %8, align 4, !tbaa !24
  %54 = or i32 %52, %53
  %55 = load ptr, ptr %4, align 8, !tbaa !51
  %56 = load i32, ptr %5, align 4, !tbaa !24
  %57 = sext i32 %56 to i64
  %58 = getelementptr inbounds i32, ptr %55, i64 %57
  store i32 %54, ptr %58, align 4, !tbaa !24
  br label %59

59:                                               ; preds = %47, %35
  br label %60

60:                                               ; preds = %59
  %61 = load i32, ptr %5, align 4, !tbaa !24
  %62 = add nsw i32 %61, 1
  store i32 %62, ptr %5, align 4, !tbaa !24
  br label %9, !llvm.loop !111

63:                                               ; preds = %9
  %64 = load ptr, ptr %4, align 8, !tbaa !51
  call void @Vec_IntSelectSort(ptr noundef %64, i32 noundef 6)
  call void @llvm.lifetime.end.p0(i64 4, ptr %8) #12
  call void @llvm.lifetime.end.p0(i64 4, ptr %7) #12
  call void @llvm.lifetime.end.p0(i64 4, ptr %6) #12
  call void @llvm.lifetime.end.p0(i64 4, ptr %5) #12
  ret void
}