; Function Attrs: nofree norecurse nosync nounwind memory(argmem: readwrite) uwtable
define void @Ifd_ComputeSignature(i64 noundef %0, ptr noundef captures(none) %1) local_unnamed_addr #16 {
  br label %3

3:                                                ; preds = %2, %83
  %indvars.iv = phi i64 [ 0, %2 ], [ %indvars.iv.next, %83 ]
  %4 = getelementptr inbounds nuw [6 x i64], ptr @s_Truths6Neg, i64 0, i64 %indvars.iv
  %5 = load i64, ptr %4, align 8, !tbaa !46
  %6 = and i64 %5, %0
  %7 = trunc nuw nsw i64 %indvars.iv to i32
  %8 = shl nuw nsw i32 1, %7
  %9 = zext nneg i32 %8 to i64
  %10 = shl i64 %6, %9
  %11 = or i64 %10, %6
  %12 = lshr i64 %11, 1
  %13 = and i64 %12, 6148914691236517205
  %14 = sub i64 %11, %13
  %15 = and i64 %14, 3689348814741910323
  %16 = lshr i64 %14, 2
  %17 = and i64 %16, 3689348814741910323
  %18 = add nuw nsw i64 %17, %15
  %19 = lshr i64 %18, 4
  %20 = add nuw nsw i64 %19, %18
  %21 = and i64 %20, 1085102592571150095
  %22 = lshr i64 %21, 8
  %23 = add nuw nsw i64 %22, %21
  %24 = lshr i64 %23, 16
  %25 = add nuw nsw i64 %24, %23
  %26 = lshr i64 %25, 32
  %27 = add nuw nsw i64 %26, %25
  %28 = trunc i64 %27 to i32
  %29 = lshr i32 %28, 1
  %30 = and i32 %29, 127
  %31 = getelementptr inbounds nuw [6 x i64], ptr @s_Truths6, i64 0, i64 %indvars.iv
  %32 = load i64, ptr %31, align 8, !tbaa !46
  %33 = and i64 %32, %0
  %34 = lshr i64 %33, %9
  %35 = or i64 %34, %33
  %36 = lshr i64 %35, 1
  %37 = and i64 %36, 6148914691236517205
  %38 = sub i64 %35, %37
  %39 = and i64 %38, 3689348814741910323
  %40 = lshr i64 %38, 2
  %41 = and i64 %40, 3689348814741910323
  %42 = add nuw nsw i64 %41, %39
  %43 = lshr i64 %42, 4
  %44 = add nuw nsw i64 %43, %42
  %45 = and i64 %44, 1085102592571150095
  %46 = lshr i64 %45, 8
  %47 = add nuw nsw i64 %46, %45
  %48 = lshr i64 %47, 16
  %49 = add nuw nsw i64 %48, %47
  %50 = lshr i64 %49, 32
  %51 = add nuw nsw i64 %50, %49
  %52 = trunc i64 %51 to i32
  %53 = lshr i32 %52, 1
  %54 = and i32 %53, 127
  %55 = xor i64 %35, %11
  %56 = lshr i64 %55, 1
  %57 = and i64 %56, 6148914691236517205
  %58 = sub i64 %55, %57
  %59 = and i64 %58, 3689348814741910323
  %60 = lshr i64 %58, 2
  %61 = and i64 %60, 3689348814741910323
  %62 = add nuw nsw i64 %61, %59
  %63 = lshr i64 %62, 4
  %64 = add nuw nsw i64 %63, %62
  %65 = and i64 %64, 1085102592571150095
  %66 = lshr i64 %65, 8
  %67 = add nuw nsw i64 %66, %65
  %68 = lshr i64 %67, 16
  %69 = add nuw nsw i64 %68, %67
  %70 = lshr i64 %69, 32
  %71 = add nuw nsw i64 %70, %69
  %72 = trunc i64 %71 to i32
  %73 = lshr i32 %72, 1
  %74 = and i32 %73, 127
  %.not = icmp samesign ugt i32 %54, %30
  br i1 %.not, label %79, label %75

75:                                               ; preds = %3
  %76 = shl nuw nsw i32 %54, 20
  %77 = shl nuw nsw i32 %30, 10
  %78 = or disjoint i32 %76, %77
  br label %83

79:                                               ; preds = %3
  %80 = shl nuw nsw i32 %30, 20
  %81 = shl nuw nsw i32 %54, 10
  %82 = or disjoint i32 %81, %80
  br label %83

83:                                               ; preds = %75, %79
  %.pn = phi i32 [ %82, %79 ], [ %78, %75 ]
  %.sink = or disjoint i32 %.pn, %74
  %84 = getelementptr inbounds nuw i32, ptr %1, i64 %indvars.iv
  store i32 %.sink, ptr %84, align 4, !tbaa !37
  %indvars.iv.next = add nuw nsw i64 %indvars.iv, 1
  %exitcond.not = icmp eq i64 %indvars.iv.next, 6
  br i1 %exitcond.not, label %.lr.ph.preheader.i, label %3, !llvm.loop !95

.lr.ph.preheader.i:                               ; preds = %83, %._crit_edge.i
  %indvars.iv29.i = phi i64 [ %indvars.iv.next30.i, %._crit_edge.i ], [ 0, %83 ]
  %indvars.iv.i = phi i64 [ %indvars.iv.next.i, %._crit_edge.i ], [ 1, %83 ]
  %85 = trunc nuw nsw i64 %indvars.iv29.i to i32
  br label %.lr.ph.i

.lr.ph.i:                                         ; preds = %.lr.ph.i, %.lr.ph.preheader.i
  %indvars.iv26.i = phi i64 [ %indvars.iv.i, %.lr.ph.preheader.i ], [ %indvars.iv.next27.i, %.lr.ph.i ]
  %.024.i = phi i32 [ %85, %.lr.ph.preheader.i ], [ %spec.select.i, %.lr.ph.i ]
  %86 = getelementptr inbounds nuw i32, ptr %1, i64 %indvars.iv26.i
  %87 = load i32, ptr %86, align 4, !tbaa !37
  %88 = zext nneg i32 %.024.i to i64
  %89 = getelementptr inbounds nuw i32, ptr %1, i64 %88
  %90 = load i32, ptr %89, align 4, !tbaa !37
  %91 = icmp slt i32 %87, %90
  %92 = trunc nuw nsw i64 %indvars.iv26.i to i32
  %spec.select.i = select i1 %91, i32 %92, i32 %.024.i
  %indvars.iv.next27.i = add nuw nsw i64 %indvars.iv26.i, 1
  %exitcond.not.i = icmp eq i64 %indvars.iv.next27.i, 6
  br i1 %exitcond.not.i, label %._crit_edge.i, label %.lr.ph.i, !llvm.loop !96

._crit_edge.i:                                    ; preds = %.lr.ph.i
  %indvars.iv.next30.i = add nuw nsw i64 %indvars.iv29.i, 1
  %93 = getelementptr inbounds nuw i32, ptr %1, i64 %indvars.iv29.i
  %94 = load i32, ptr %93, align 4, !tbaa !37
  %95 = zext nneg i32 %spec.select.i to i64
  %96 = getelementptr inbounds nuw i32, ptr %1, i64 %95
  %97 = load i32, ptr %96, align 4, !tbaa !37
  store i32 %97, ptr %93, align 4, !tbaa !37
  store i32 %94, ptr %96, align 4, !tbaa !37
  %indvars.iv.next.i = add nuw nsw i64 %indvars.iv.i, 1
  %exitcond32.not.i = icmp eq i64 %indvars.iv.next30.i, 5
  br i1 %exitcond32.not.i, label %Vec_IntSelectSort.exit, label %.lr.ph.preheader.i, !llvm.loop !97

Vec_IntSelectSort.exit:                           ; preds = %._crit_edge.i
  ret void
}